target datalayout = "e-m:e-p270:32:32-p271:32:32-p272:64:64-i64:64-i128:128-f80:128-n8:16:32:64-S128"
target triple = "x86_64-pc-linux-gnu"

%class.Phase = type { i32, ptr }
%class.LibraryCallKit = type <{ %class.GraphKit.base, [4 x i8], ptr, ptr, i32, [4 x i8] }>
%class.GraphKit.base = type <{ ptr, %class.Phase, ptr, ptr, ptr, ptr, i32, [4 x i8], ptr, ptr, i32 }>
%class.JVMState = type { ptr, i32, i32, i32, i32, i32, i32, i32, i32, i32, ptr, ptr }
%class.SafePointNode = type <{ %class.MultiNode.base, [4 x i8], ptr, ptr, %class.ReplacedNodes, i8, [7 x i8] }>
%class.MultiNode.base = type { %class.Node.base }
%class.Node.base = type <{ ptr, ptr, ptr, i32, i32, i32, i32, i32, i32, i32 }>
%class.ReplacedNodes = type { ptr }
%class.GraphKit = type <{ ptr, %class.Phase, ptr, ptr, ptr, ptr, i32, [4 x i8], ptr, ptr, i32, [4 x i8] }>
%class.Node = type <{ ptr, ptr, ptr, i32, i32, i32, i32, i32, i32, i32, [4 x i8] }>
%class.Type = type <{ ptr, ptr, i32, [4 x i8] }>
%class.TypeAryPtr = type <{ %class.TypeOopPtr, ptr, i8, [7 x i8] }>
%class.TypeOopPtr = type { %class.TypePtr.base, ptr, ptr, ptr, i8, i8, i8, i8, i32 }
%class.TypePtr.base = type <{ %class.Type.base, [4 x i8], ptr, i32, i32, i32 }>
%class.Type.base = type <{ ptr, ptr, i32 }>
%class.TypeAry = type <{ %class.Type.base, [4 x i8], ptr, ptr, i8, [7 x i8] }>

@_ZN7TypePtr6BOTTOME = external global ptr, align 8
@_ZN4Type6BOTTOME = external global ptr, align 8
@.str.69 = private unnamed_addr constant [12 x i8] c"squareToLen\00", align 1
@_ZN12StubRoutines12_squareToLenE = external global ptr, align 8

; Function Attrs: mustprogress nounwind uwtable
define linkonce_odr hidden noundef ptr @_ZNK4Node2inEj(ptr noundef nonnull align 8 dereferenceable(52) %0, i32 noundef %1) #1 comdat align 2 {
  %3 = alloca ptr, align 8
  %4 = alloca i32, align 4
  store ptr %0, ptr %3, align 8
  store i32 %1, ptr %4, align 4
  %5 = load ptr, ptr %3, align 8
  %6 = getelementptr inbounds %class.Node, ptr %5, i32 0, i32 1
  %7 = load ptr, ptr %6, align 8
  %8 = load i32, ptr %4, align 4
  %9 = zext i32 %8 to i64
  %10 = getelementptr inbounds ptr, ptr %7, i64 %9
  %11 = load ptr, ptr %10, align 8
  ret ptr %11
}

; Function Attrs: mustprogress nounwind uwtable
define linkonce_odr hidden void @_ZNK13SafePointNode12verify_inputEP8JVMStatej(ptr noundef nonnull align 8 dereferenceable(81) %0, ptr noundef %1, i32 noundef %2) #1 comdat align 2 {
  %4 = alloca ptr, align 8
  %5 = alloca ptr, align 8
  %6 = alloca i32, align 4
  %7 = alloca ptr, align 8
  store ptr %0, ptr %4, align 8
  store ptr %1, ptr %5, align 8
  store i32 %2, ptr %6, align 4
  %8 = load ptr, ptr %4, align 8
  %9 = load i32, ptr %6, align 4
  %10 = call noundef ptr @_ZNK4Node2inEj(ptr noundef nonnull align 8 dereferenceable(52) %8, i32 noundef %9)
  store ptr %10, ptr %7, align 8
  ret void
}

; Function Attrs: mustprogress nounwind uwtable
define linkonce_odr hidden noundef i32 @_ZNK8JVMState6argoffEv(ptr noundef nonnull align 8 dereferenceable(64) %0) #1 comdat align 2 {
  %2 = alloca ptr, align 8
  store ptr %0, ptr %2, align 8
  %3 = load ptr, ptr %2, align 8
  %4 = getelementptr inbounds %class.JVMState, ptr %3, i32 0, i32 3
  %5 = load i32, ptr %4, align 8
  %6 = getelementptr inbounds %class.JVMState, ptr %3, i32 0, i32 7
  %7 = load i32, ptr %6, align 8
  %8 = add i32 %5, %7
  ret i32 %8
}

; Function Attrs: mustprogress nounwind uwtable
define linkonce_odr hidden noundef ptr @_ZNK13SafePointNode8argumentEP8JVMStatej(ptr noundef nonnull align 8 dereferenceable(81) %0, ptr noundef %1, i32 noundef %2) #1 comdat align 2 {
  %4 = alloca ptr, align 8
  %5 = alloca ptr, align 8
  %6 = alloca i32, align 4
  store ptr %0, ptr %4, align 8
  store ptr %1, ptr %5, align 8
  store i32 %2, ptr %6, align 4
  %7 = load ptr, ptr %4, align 8
  %8 = load ptr, ptr %5, align 8
  %9 = load ptr, ptr %5, align 8
  %10 = call noundef i32 @_ZNK8JVMState6argoffEv(ptr noundef nonnull align 8 dereferenceable(64) %9)
  %11 = load i32, ptr %6, align 4
  %12 = add i32 %10, %11
  call void @_ZNK13SafePointNode12verify_inputEP8JVMStatej(ptr noundef nonnull align 8 dereferenceable(81) %7, ptr noundef %8, i32 noundef %12)
  %13 = load ptr, ptr %5, align 8
  %14 = call noundef i32 @_ZNK8JVMState6argoffEv(ptr noundef nonnull align 8 dereferenceable(64) %13)
  %15 = load i32, ptr %6, align 4
  %16 = add i32 %14, %15
  %17 = call noundef ptr @_ZNK4Node2inEj(ptr noundef nonnull align 8 dereferenceable(52) %7, i32 noundef %16)
  ret ptr %17
}

; Function Attrs: mustprogress nounwind uwtable
define linkonce_odr hidden noundef ptr @_ZNK8GraphKit12map_not_nullEv(ptr noundef nonnull align 8 dereferenceable(84) %0) #1 comdat align 2 {
  %2 = alloca ptr, align 8
  store ptr %0, ptr %2, align 8
  %3 = load ptr, ptr %2, align 8
  %4 = getelementptr inbounds %class.GraphKit, ptr %3, i32 0, i32 4
  %5 = load ptr, ptr %4, align 8
  ret ptr %5
}

; Function Attrs: mustprogress nounwind uwtable
define linkonce_odr hidden void @_ZN14LibraryCallKit10set_resultEP4Node(ptr noundef nonnull align 8 dereferenceable(108) %0, ptr noundef %1) #1 comdat align 2 {
  %3 = alloca ptr, align 8
  %4 = alloca ptr, align 8
  store ptr %0, ptr %3, align 8
  store ptr %1, ptr %4, align 8
  %5 = load ptr, ptr %3, align 8
  %6 = load ptr, ptr %4, align 8
  %7 = getelementptr inbounds %class.LibraryCallKit, ptr %5, i32 0, i32 3
  store ptr %6, ptr %7, align 8
  ret void
}

; Function Attrs: mustprogress nounwind uwtable
define linkonce_odr hidden noundef ptr @_ZNK8GraphKit6intconEi(ptr noundef nonnull align 8 dereferenceable(84) %0, i32 noundef %1) #1 comdat align 2 {
  %3 = alloca ptr, align 8
  %4 = alloca i32, align 4
  store ptr %0, ptr %3, align 8
  store i32 %1, ptr %4, align 4
  %5 = load ptr, ptr %3, align 8
  %6 = getelementptr inbounds %class.GraphKit, ptr %5, i32 0, i32 3
  %7 = load ptr, ptr %6, align 8
  %8 = load i32, ptr %4, align 4
  %9 = call noundef ptr @_ZN11PhaseValues6intconEi(ptr noundef nonnull align 8 dereferenceable(2400) %7, i32 noundef %8)
  ret ptr %9
}

; Function Attrs: mustprogress nounwind uwtable
define linkonce_odr hidden noundef ptr @_ZNK10TypeAryPtr4elemEv(ptr noundef nonnull align 8 dereferenceable(89) %0) #1 comdat align 2 {
  %2 = alloca ptr, align 8
  store ptr %0, ptr %2, align 8
  %3 = load ptr, ptr %2, align 8
  %4 = getelementptr inbounds %class.TypeAryPtr, ptr %3, i32 0, i32 1
  %5 = load ptr, ptr %4, align 8
  %6 = getelementptr inbounds %class.TypeAry, ptr %5, i32 0, i32 2
  %7 = load ptr, ptr %6, align 8
  ret ptr %7
}

; Function Attrs: mustprogress nounwind uwtable
define linkonce_odr hidden noundef ptr @_ZNK4Type10isa_aryptrEv(ptr noundef nonnull align 8 dereferenceable(20) %0) #1 comdat align 2 {
  %2 = alloca ptr, align 8
  store ptr %0, ptr %2, align 8
  %3 = load ptr, ptr %2, align 8
  %4 = getelementptr inbounds %class.Type, ptr %3, i32 0, i32 2
  %5 = load i32, ptr %4, align 8
  %6 = icmp eq i32 %5, 22
  br i1 %6, label %7, label %8

7:                                                ; preds = %1
  br label %9

8:                                                ; preds = %1
  br label %9

9:                                                ; preds = %8, %7
  %10 = phi ptr [ %3, %7 ], [ null, %8 ]
  ret ptr %10
}

; Function Attrs: mustprogress nounwind uwtable
define linkonce_odr hidden noundef ptr @_ZNK8GraphKit8argumentEj(ptr noundef nonnull align 8 dereferenceable(84) %0, i32 noundef %1) #1 comdat align 2 {
  %3 = alloca ptr, align 8
  %4 = alloca i32, align 4
  store ptr %0, ptr %3, align 8
  store i32 %1, ptr %4, align 4
  %5 = load ptr, ptr %3, align 8
  %6 = call noundef ptr @_ZNK8GraphKit12map_not_nullEv(ptr noundef nonnull align 8 dereferenceable(84) %5)
  %7 = getelementptr inbounds %class.GraphKit, ptr %5, i32 0, i32 4
  %8 = load ptr, ptr %7, align 8
  %9 = getelementptr inbounds %class.GraphKit, ptr %5, i32 0, i32 4
  %10 = load ptr, ptr %9, align 8
  %11 = getelementptr inbounds %class.SafePointNode, ptr %10, i32 0, i32 2
  %12 = load ptr, ptr %11, align 8
  %13 = load i32, ptr %4, align 4
  %14 = call noundef ptr @_ZNK13SafePointNode8argumentEP8JVMStatej(ptr noundef nonnull align 8 dereferenceable(81) %8, ptr noundef %12, i32 noundef %13)
  ret ptr %14
}

; Function Attrs: mustprogress nounwind uwtable
define linkonce_odr hidden noundef ptr @_ZN12StubRoutines11squareToLenEv() #1 comdat align 2 {
  %1 = load ptr, ptr @_ZN12StubRoutines12_squareToLenE, align 8
  ret ptr %1
}

; Function Attrs: mustprogress nounwind uwtable
define hidden noundef zeroext i1 @_ZN14LibraryCallKit18inline_squareToLenEv(ptr noundef nonnull align 8 dereferenceable(108) %0) #1 align 2 {
  %2 = alloca i1, align 1
  %3 = alloca ptr, align 8
  %4 = alloca ptr, align 8
  %5 = alloca ptr, align 8
  %6 = alloca ptr, align 8
  %7 = alloca ptr, align 8
  %8 = alloca ptr, align 8
  %9 = alloca ptr, align 8
  %10 = alloca ptr, align 8
  %11 = alloca ptr, align 8
  %12 = alloca i8, align 1
  %13 = alloca i8, align 1
  %14 = alloca ptr, align 8
  %15 = alloca ptr, align 8
  %16 = alloca ptr, align 8
  store ptr %0, ptr %3, align 8
  %17 = load ptr, ptr %3, align 8
  %18 = call noundef ptr @_ZN12StubRoutines11squareToLenEv()
  store ptr %18, ptr %4, align 8
  %19 = load ptr, ptr %4, align 8
  %20 = icmp eq ptr %19, null
  br i1 %20, label %21, label %22

21:                                               ; preds = %1
  store i1 false, ptr %2, align 1
  br label %97

22:                                               ; preds = %1
  store ptr @.str.69, ptr %5, align 8
  %23 = call noundef ptr @_ZNK8GraphKit8argumentEj(ptr noundef nonnull align 8 dereferenceable(84) %17, i32 noundef 0)
  store ptr %23, ptr %6, align 8
  %24 = call noundef ptr @_ZNK8GraphKit8argumentEj(ptr noundef nonnull align 8 dereferenceable(84) %17, i32 noundef 1)
  store ptr %24, ptr %7, align 8
  %25 = call noundef ptr @_ZNK8GraphKit8argumentEj(ptr noundef nonnull align 8 dereferenceable(84) %17, i32 noundef 2)
  store ptr %25, ptr %8, align 8
  %26 = call noundef ptr @_ZNK8GraphKit8argumentEj(ptr noundef nonnull align 8 dereferenceable(84) %17, i32 noundef 3)
  store ptr %26, ptr %9, align 8
  %27 = load ptr, ptr %6, align 8
  %28 = call noundef ptr @_ZN8GraphKit16must_be_not_nullEP4Nodeb(ptr noundef nonnull align 8 dereferenceable(84) %17, ptr noundef %27, i1 noundef zeroext true)
  store ptr %28, ptr %6, align 8
  %29 = load ptr, ptr %8, align 8
  %30 = call noundef ptr @_ZN8GraphKit16must_be_not_nullEP4Nodeb(ptr noundef nonnull align 8 dereferenceable(84) %17, ptr noundef %29, i1 noundef zeroext true)
  store ptr %30, ptr %8, align 8
  %31 = load ptr, ptr %6, align 8
  %32 = getelementptr inbounds %class.GraphKit, ptr %17, i32 0, i32 3
  %33 = load ptr, ptr %32, align 8
  %34 = load ptr, ptr %31, align 8
  %35 = getelementptr inbounds ptr, ptr %34, i64 8
  %36 = load ptr, ptr %35, align 8
  %37 = call noundef ptr %36(ptr noundef nonnull align 8 dereferenceable(52) %31, ptr noundef %33)
  %38 = call noundef ptr @_ZNK4Type10isa_aryptrEv(ptr noundef nonnull align 8 dereferenceable(20) %37)
  store ptr %38, ptr %10, align 8
  %39 = load ptr, ptr %8, align 8
  %40 = getelementptr inbounds %class.GraphKit, ptr %17, i32 0, i32 3
  %41 = load ptr, ptr %40, align 8
  %42 = load ptr, ptr %39, align 8
  %43 = getelementptr inbounds ptr, ptr %42, i64 8
  %44 = load ptr, ptr %43, align 8
  %45 = call noundef ptr %44(ptr noundef nonnull align 8 dereferenceable(52) %39, ptr noundef %41)
  %46 = call noundef ptr @_ZNK4Type10isa_aryptrEv(ptr noundef nonnull align 8 dereferenceable(20) %45)
  store ptr %46, ptr %11, align 8
  %47 = load ptr, ptr %10, align 8
  %48 = icmp eq ptr %47, null
  br i1 %48, label %62, label %49

49:                                               ; preds = %22
  %50 = load ptr, ptr %10, align 8
  %51 = call noundef ptr @_ZNK10TypeAryPtr4elemEv(ptr noundef nonnull align 8 dereferenceable(89) %50)
  %52 = load ptr, ptr @_ZN4Type6BOTTOME, align 8
  %53 = icmp eq ptr %51, %52
  br i1 %53, label %62, label %54

54:                                               ; preds = %49
  %55 = load ptr, ptr %11, align 8
  %56 = icmp eq ptr %55, null
  br i1 %56, label %62, label %57

57:                                               ; preds = %54
  %58 = load ptr, ptr %11, align 8
  %59 = call noundef ptr @_ZNK10TypeAryPtr4elemEv(ptr noundef nonnull align 8 dereferenceable(89) %58)
  %60 = load ptr, ptr @_ZN4Type6BOTTOME, align 8
  %61 = icmp eq ptr %59, %60
  br i1 %61, label %62, label %63

62:                                               ; preds = %57, %54, %49, %22
  store i1 false, ptr %2, align 1
  br label %97

63:                                               ; preds = %57
  %64 = load ptr, ptr %10, align 8
  %65 = call noundef ptr @_ZNK10TypeAryPtr4elemEv(ptr noundef nonnull align 8 dereferenceable(89) %64)
  %66 = call noundef zeroext i8 @_ZNK4Type24array_element_basic_typeEv(ptr noundef nonnull align 8 dereferenceable(20) %65)
  store i8 %66, ptr %12, align 1
  %67 = load ptr, ptr %11, align 8
  %68 = call noundef ptr @_ZNK10TypeAryPtr4elemEv(ptr noundef nonnull align 8 dereferenceable(89) %67)
  %69 = call noundef zeroext i8 @_ZNK4Type24array_element_basic_typeEv(ptr noundef nonnull align 8 dereferenceable(20) %68)
  store i8 %69, ptr %13, align 1
  %70 = load i8, ptr %12, align 1
  %71 = zext i8 %70 to i32
  %72 = icmp ne i32 %71, 10
  br i1 %72, label %77, label %73

73:                                               ; preds = %63
  %74 = load i8, ptr %13, align 1
  %75 = zext i8 %74 to i32
  %76 = icmp ne i32 %75, 10
  br i1 %76, label %77, label %78

77:                                               ; preds = %73, %63
  store i1 false, ptr %2, align 1
  br label %97

78:                                               ; preds = %73
  %79 = load ptr, ptr %6, align 8
  %80 = call noundef ptr @_ZNK8GraphKit6intconEi(ptr noundef nonnull align 8 dereferenceable(84) %17, i32 noundef 0)
  %81 = load i8, ptr %12, align 1
  %82 = call noundef ptr @_ZN8GraphKit21array_element_addressEP4NodeS1_9BasicTypePK7TypeIntS1_(ptr noundef nonnull align 8 dereferenceable(84) %17, ptr noundef %79, ptr noundef %80, i8 noundef zeroext %81, ptr noundef null, ptr noundef null)
  store ptr %82, ptr %14, align 8
  %83 = load ptr, ptr %8, align 8
  %84 = call noundef ptr @_ZNK8GraphKit6intconEi(ptr noundef nonnull align 8 dereferenceable(84) %17, i32 noundef 0)
  %85 = load i8, ptr %13, align 1
  %86 = call noundef ptr @_ZN8GraphKit21array_element_addressEP4NodeS1_9BasicTypePK7TypeIntS1_(ptr noundef nonnull align 8 dereferenceable(84) %17, ptr noundef %83, ptr noundef %84, i8 noundef zeroext %85, ptr noundef null, ptr noundef null)
  store ptr %86, ptr %15, align 8
  %87 = call noundef ptr @_ZN11OptoRuntime16squareToLen_TypeEv()
  %88 = load ptr, ptr %4, align 8
  %89 = load ptr, ptr %5, align 8
  %90 = load ptr, ptr @_ZN7TypePtr6BOTTOME, align 8
  %91 = load ptr, ptr %14, align 8
  %92 = load ptr, ptr %7, align 8
  %93 = load ptr, ptr %15, align 8
  %94 = load ptr, ptr %9, align 8
  %95 = call noundef ptr @_ZN8GraphKit17make_runtime_callEiPK8TypeFuncPhPKcPK7TypePtrP4NodeSA_SA_SA_SA_SA_SA_SA_(ptr noundef nonnull align 8 dereferenceable(84) %17, i32 noundef 1, ptr noundef %87, ptr noundef %88, ptr noundef %89, ptr noundef %90, ptr noundef %91, ptr noundef %92, ptr noundef %93, ptr noundef %94, ptr noundef null, ptr noundef null, ptr noundef null, ptr noundef null)
  store ptr %95, ptr %16, align 8
  %96 = load ptr, ptr %8, align 8
  call void @_ZN14LibraryCallKit10set_resultEP4Node(ptr noundef nonnull align 8 dereferenceable(108) %17, ptr noundef %96)
  store i1 true, ptr %2, align 1
  br label %97

97:                                               ; preds = %78, %77, %62, %21
  %98 = load i1, ptr %2, align 1
  ret i1 %98
}