; Function Attrs: mustprogress nounwind uwtable
define hidden noundef zeroext i1 @_ZN14LibraryCallKit18inline_squareToLenEv(ptr noundef nonnull align 8 dereferenceable(108) %0) local_unnamed_addr #0 align 2 {
  %2 = load ptr, ptr @_ZN12StubRoutines12_squareToLenE, align 8
  %3 = icmp eq ptr %2, null
  br i1 %3, label %85, label %4

4:                                                ; preds = %1
  %5 = getelementptr inbounds i8, ptr %0, i64 40
  %6 = load ptr, ptr %5, align 8
  %7 = getelementptr inbounds i8, ptr %6, i64 56
  %8 = load ptr, ptr %7, align 8
  %9 = getelementptr inbounds i8, ptr %8, i64 16
  %10 = load i32, ptr %9, align 8
  %11 = getelementptr inbounds i8, ptr %8, i64 32
  %12 = load i32, ptr %11, align 8
  %13 = add i32 %12, %10
  %14 = getelementptr inbounds i8, ptr %6, i64 8
  %15 = load ptr, ptr %14, align 8
  %16 = zext i32 %13 to i64
  %17 = getelementptr inbounds ptr, ptr %15, i64 %16
  %18 = load ptr, ptr %17, align 8
  %19 = add i32 %13, 1
  %20 = zext i32 %19 to i64
  %21 = getelementptr inbounds ptr, ptr %15, i64 %20
  %22 = load ptr, ptr %21, align 8
  %23 = add i32 %13, 2
  %24 = zext i32 %23 to i64
  %25 = getelementptr inbounds ptr, ptr %15, i64 %24
  %26 = load ptr, ptr %25, align 8
  %27 = add i32 %13, 3
  %28 = zext i32 %27 to i64
  %29 = getelementptr inbounds ptr, ptr %15, i64 %28
  %30 = load ptr, ptr %29, align 8
  %31 = tail call noundef ptr @_ZN8GraphKit16must_be_not_nullEP4Nodeb(ptr noundef nonnull align 8 dereferenceable(84) %0, ptr noundef %18, i1 noundef zeroext true) #13
  %32 = tail call noundef ptr @_ZN8GraphKit16must_be_not_nullEP4Nodeb(ptr noundef nonnull align 8 dereferenceable(84) %0, ptr noundef %26, i1 noundef zeroext true) #13
  %33 = getelementptr inbounds i8, ptr %0, i64 32
  %34 = load ptr, ptr %33, align 8
  %35 = load ptr, ptr %31, align 8
  %36 = getelementptr inbounds i8, ptr %35, i64 64
  %37 = load ptr, ptr %36, align 8
  %38 = tail call noundef ptr %37(ptr noundef nonnull align 8 dereferenceable(52) %31, ptr noundef %34) #13
  %39 = getelementptr inbounds i8, ptr %38, i64 16
  %40 = load i32, ptr %39, align 8
  %41 = icmp ne i32 %40, 22
  %42 = load ptr, ptr %33, align 8
  %43 = load ptr, ptr %32, align 8
  %44 = getelementptr inbounds i8, ptr %43, i64 64
  %45 = load ptr, ptr %44, align 8
  %46 = tail call noundef ptr %45(ptr noundef nonnull align 8 dereferenceable(52) %32, ptr noundef %42) #13
  %47 = getelementptr inbounds i8, ptr %46, i64 16
  %48 = load i32, ptr %47, align 8
  %49 = icmp eq i32 %48, 22
  %..i32 = select i1 %49, ptr %46, ptr null
  %50 = icmp eq ptr %38, null
  %51 = or i1 %50, %41
  br i1 %51, label %85, label %52

52:                                               ; preds = %4
  %53 = getelementptr inbounds i8, ptr %38, i64 80
  %54 = load ptr, ptr %53, align 8
  %55 = getelementptr inbounds i8, ptr %54, i64 24
  %56 = load ptr, ptr %55, align 8
  %57 = load ptr, ptr @_ZN4Type6BOTTOME, align 8
  %58 = icmp eq ptr %56, %57
  %59 = icmp eq ptr %..i32, null
  %or.cond = or i1 %59, %58
  br i1 %or.cond, label %85, label %60

60:                                               ; preds = %52
  %61 = getelementptr inbounds i8, ptr %..i32, i64 80
  %62 = load ptr, ptr %61, align 8
  %63 = getelementptr inbounds i8, ptr %62, i64 24
  %64 = load ptr, ptr %63, align 8
  %65 = icmp eq ptr %64, %57
  br i1 %65, label %85, label %66

66:                                               ; preds = %60
  %67 = tail call noundef zeroext i8 @_ZNK4Type24array_element_basic_typeEv(ptr noundef nonnull align 8 dereferenceable(20) %56) #13
  %68 = load ptr, ptr %61, align 8
  %69 = getelementptr inbounds i8, ptr %68, i64 24
  %70 = load ptr, ptr %69, align 8
  %71 = tail call noundef zeroext i8 @_ZNK4Type24array_element_basic_typeEv(ptr noundef nonnull align 8 dereferenceable(20) %70) #13
  %72 = icmp ne i8 %67, 10
  %73 = icmp ne i8 %71, 10
  %or.cond4 = or i1 %72, %73
  br i1 %or.cond4, label %85, label %74

74:                                               ; preds = %66
  %75 = load ptr, ptr %33, align 8
  %76 = tail call noundef ptr @_ZN11PhaseValues6intconEi(ptr noundef nonnull align 8 dereferenceable(2400) %75, i32 noundef 0) #13
  %77 = tail call noundef ptr @_ZN8GraphKit21array_element_addressEP4NodeS1_9BasicTypePK7TypeIntS1_(ptr noundef nonnull align 8 dereferenceable(84) %0, ptr noundef nonnull %31, ptr noundef %76, i8 noundef zeroext 10, ptr noundef null, ptr noundef null) #13
  %78 = load ptr, ptr %33, align 8
  %79 = tail call noundef ptr @_ZN11PhaseValues6intconEi(ptr noundef nonnull align 8 dereferenceable(2400) %78, i32 noundef 0) #13
  %80 = tail call noundef ptr @_ZN8GraphKit21array_element_addressEP4NodeS1_9BasicTypePK7TypeIntS1_(ptr noundef nonnull align 8 dereferenceable(84) %0, ptr noundef nonnull %32, ptr noundef %79, i8 noundef zeroext 10, ptr noundef null, ptr noundef null) #13
  %81 = tail call noundef ptr @_ZN11OptoRuntime16squareToLen_TypeEv() #13
  %82 = load ptr, ptr @_ZN7TypePtr6BOTTOME, align 8
  %83 = tail call noundef ptr @_ZN8GraphKit17make_runtime_callEiPK8TypeFuncPhPKcPK7TypePtrP4NodeSA_SA_SA_SA_SA_SA_SA_(ptr noundef nonnull align 8 dereferenceable(84) %0, i32 noundef 1, ptr noundef %81, ptr noundef nonnull %2, ptr noundef nonnull @.str.69, ptr noundef %82, ptr noundef %77, ptr noundef %22, ptr noundef %80, ptr noundef %30, ptr noundef null, ptr noundef null, ptr noundef null, ptr noundef null) #13
  %84 = getelementptr inbounds i8, ptr %0, i64 96
  store ptr %32, ptr %84, align 8
  br label %85

85:                                               ; preds = %66, %4, %52, %60, %1, %74
  %.0 = phi i1 [ true, %74 ], [ false, %1 ], [ false, %60 ], [ false, %52 ], [ false, %4 ], [ false, %66 ]
  ret i1 %.0
}